; Function Attrs: inlinehint mustprogress nounwind uwtable
define internal void @_ZN12_GLOBAL__N_118SynthMicrochipPassD2Ev(ptr noundef nonnull align 8 dereferenceable(362) initializes((0, 8)) %0) unnamed_addr #3 align 2 personality ptr @__gxx_personality_v0 {
  store ptr getelementptr inbounds nuw inrange(-16, 80) (i8, ptr @_ZTVN12_GLOBAL__N_118SynthMicrochipPassE, i64 16), ptr %0, align 8, !tbaa !6
  %2 = getelementptr inbounds nuw i8, ptr %0, i64 312
  %3 = load ptr, ptr %2, align 8, !tbaa !9
  %4 = getelementptr inbounds nuw i8, ptr %0, i64 328
  %5 = icmp eq ptr %3, %4
  br i1 %5, label %_ZNKSt7__cxx1112basic_stringIcSt11char_traitsIcESaIcEE11_M_is_localEv.exit.thread.i.i, label %_ZNKSt7__cxx1112basic_stringIcSt11char_traitsIcESaIcEE11_M_is_localEv.exit.i.i

_ZNKSt7__cxx1112basic_stringIcSt11char_traitsIcESaIcEE11_M_is_localEv.exit.thread.i.i: ; preds = %1
  %6 = getelementptr inbounds nuw i8, ptr %0, i64 320
  %7 = load i64, ptr %6, align 8, !tbaa !16
  %8 = icmp ult i64 %7, 16
  tail call void @llvm.assume(i1 %8)
  br label %_ZNSt7__cxx1112basic_stringIcSt11char_traitsIcESaIcEED2Ev.exit

_ZNKSt7__cxx1112basic_stringIcSt11char_traitsIcESaIcEE11_M_is_localEv.exit.i.i: ; preds = %1
  %9 = load i64, ptr %4, align 8, !tbaa !17
  %10 = add i64 %9, 1
  tail call void @_ZdlPvm(ptr noundef %3, i64 noundef %10) #24
  br label %_ZNSt7__cxx1112basic_stringIcSt11char_traitsIcESaIcEED2Ev.exit

_ZNSt7__cxx1112basic_stringIcSt11char_traitsIcESaIcEED2Ev.exit: ; preds = %_ZNKSt7__cxx1112basic_stringIcSt11char_traitsIcESaIcEE11_M_is_localEv.exit.thread.i.i, %_ZNKSt7__cxx1112basic_stringIcSt11char_traitsIcESaIcEE11_M_is_localEv.exit.i.i
  %11 = getelementptr inbounds nuw i8, ptr %0, i64 280
  %12 = load ptr, ptr %11, align 8, !tbaa !9
  %13 = getelementptr inbounds nuw i8, ptr %0, i64 296
  %14 = icmp eq ptr %12, %13
  br i1 %14, label %_ZNKSt7__cxx1112basic_stringIcSt11char_traitsIcESaIcEE11_M_is_localEv.exit.thread.i.i2, label %_ZNKSt7__cxx1112basic_stringIcSt11char_traitsIcESaIcEE11_M_is_localEv.exit.i.i1

_ZNKSt7__cxx1112basic_stringIcSt11char_traitsIcESaIcEE11_M_is_localEv.exit.thread.i.i2: ; preds = %_ZNSt7__cxx1112basic_stringIcSt11char_traitsIcESaIcEED2Ev.exit
  %15 = getelementptr inbounds nuw i8, ptr %0, i64 288
  %16 = load i64, ptr %15, align 8, !tbaa !16
  %17 = icmp ult i64 %16, 16
  tail call void @llvm.assume(i1 %17)
  br label %_ZNSt7__cxx1112basic_stringIcSt11char_traitsIcESaIcEED2Ev.exit3

_ZNKSt7__cxx1112basic_stringIcSt11char_traitsIcESaIcEE11_M_is_localEv.exit.i.i1: ; preds = %_ZNSt7__cxx1112basic_stringIcSt11char_traitsIcESaIcEED2Ev.exit
  %18 = load i64, ptr %13, align 8, !tbaa !17
  %19 = add i64 %18, 1
  tail call void @_ZdlPvm(ptr noundef %12, i64 noundef %19) #24
  br label %_ZNSt7__cxx1112basic_stringIcSt11char_traitsIcESaIcEED2Ev.exit3

_ZNSt7__cxx1112basic_stringIcSt11char_traitsIcESaIcEED2Ev.exit3: ; preds = %_ZNKSt7__cxx1112basic_stringIcSt11char_traitsIcESaIcEE11_M_is_localEv.exit.thread.i.i2, %_ZNKSt7__cxx1112basic_stringIcSt11char_traitsIcESaIcEE11_M_is_localEv.exit.i.i1
  %20 = getelementptr inbounds nuw i8, ptr %0, i64 248
  %21 = load ptr, ptr %20, align 8, !tbaa !9
  %22 = getelementptr inbounds nuw i8, ptr %0, i64 264
  %23 = icmp eq ptr %21, %22
  br i1 %23, label %_ZNKSt7__cxx1112basic_stringIcSt11char_traitsIcESaIcEE11_M_is_localEv.exit.thread.i.i5, label %_ZNKSt7__cxx1112basic_stringIcSt11char_traitsIcESaIcEE11_M_is_localEv.exit.i.i4

_ZNKSt7__cxx1112basic_stringIcSt11char_traitsIcESaIcEE11_M_is_localEv.exit.thread.i.i5: ; preds = %_ZNSt7__cxx1112basic_stringIcSt11char_traitsIcESaIcEED2Ev.exit3
  %24 = getelementptr inbounds nuw i8, ptr %0, i64 256
  %25 = load i64, ptr %24, align 8, !tbaa !16
  %26 = icmp ult i64 %25, 16
  tail call void @llvm.assume(i1 %26)
  br label %_ZNSt7__cxx1112basic_stringIcSt11char_traitsIcESaIcEED2Ev.exit6

_ZNKSt7__cxx1112basic_stringIcSt11char_traitsIcESaIcEE11_M_is_localEv.exit.i.i4: ; preds = %_ZNSt7__cxx1112basic_stringIcSt11char_traitsIcESaIcEED2Ev.exit3
  %27 = load i64, ptr %22, align 8, !tbaa !17
  %28 = add i64 %27, 1
  tail call void @_ZdlPvm(ptr noundef %21, i64 noundef %28) #24
  br label %_ZNSt7__cxx1112basic_stringIcSt11char_traitsIcESaIcEED2Ev.exit6

_ZNSt7__cxx1112basic_stringIcSt11char_traitsIcESaIcEED2Ev.exit6: ; preds = %_ZNKSt7__cxx1112basic_stringIcSt11char_traitsIcESaIcEE11_M_is_localEv.exit.thread.i.i5, %_ZNKSt7__cxx1112basic_stringIcSt11char_traitsIcESaIcEE11_M_is_localEv.exit.i.i4
  %29 = getelementptr inbounds nuw i8, ptr %0, i64 216
  %30 = load ptr, ptr %29, align 8, !tbaa !9
  %31 = getelementptr inbounds nuw i8, ptr %0, i64 232
  %32 = icmp eq ptr %30, %31
  br i1 %32, label %_ZNKSt7__cxx1112basic_stringIcSt11char_traitsIcESaIcEE11_M_is_localEv.exit.thread.i.i8, label %_ZNKSt7__cxx1112basic_stringIcSt11char_traitsIcESaIcEE11_M_is_localEv.exit.i.i7

_ZNKSt7__cxx1112basic_stringIcSt11char_traitsIcESaIcEE11_M_is_localEv.exit.thread.i.i8: ; preds = %_ZNSt7__cxx1112basic_stringIcSt11char_traitsIcESaIcEED2Ev.exit6
  %33 = getelementptr inbounds nuw i8, ptr %0, i64 224
  %34 = load i64, ptr %33, align 8, !tbaa !16
  %35 = icmp ult i64 %34, 16
  tail call void @llvm.assume(i1 %35)
  br label %_ZNSt7__cxx1112basic_stringIcSt11char_traitsIcESaIcEED2Ev.exit9

_ZNKSt7__cxx1112basic_stringIcSt11char_traitsIcESaIcEE11_M_is_localEv.exit.i.i7: ; preds = %_ZNSt7__cxx1112basic_stringIcSt11char_traitsIcESaIcEED2Ev.exit6
  %36 = load i64, ptr %31, align 8, !tbaa !17
  %37 = add i64 %36, 1
  tail call void @_ZdlPvm(ptr noundef %30, i64 noundef %37) #24
  br label %_ZNSt7__cxx1112basic_stringIcSt11char_traitsIcESaIcEED2Ev.exit9

_ZNSt7__cxx1112basic_stringIcSt11char_traitsIcESaIcEED2Ev.exit9: ; preds = %_ZNKSt7__cxx1112basic_stringIcSt11char_traitsIcESaIcEE11_M_is_localEv.exit.thread.i.i8, %_ZNKSt7__cxx1112basic_stringIcSt11char_traitsIcESaIcEE11_M_is_localEv.exit.i.i7
  %38 = getelementptr inbounds nuw i8, ptr %0, i64 184
  %39 = load ptr, ptr %38, align 8, !tbaa !9
  %40 = getelementptr inbounds nuw i8, ptr %0, i64 200
  %41 = icmp eq ptr %39, %40
  br i1 %41, label %_ZNKSt7__cxx1112basic_stringIcSt11char_traitsIcESaIcEE11_M_is_localEv.exit.thread.i.i11, label %_ZNKSt7__cxx1112basic_stringIcSt11char_traitsIcESaIcEE11_M_is_localEv.exit.i.i10

_ZNKSt7__cxx1112basic_stringIcSt11char_traitsIcESaIcEE11_M_is_localEv.exit.thread.i.i11: ; preds = %_ZNSt7__cxx1112basic_stringIcSt11char_traitsIcESaIcEED2Ev.exit9
  %42 = getelementptr inbounds nuw i8, ptr %0, i64 192
  %43 = load i64, ptr %42, align 8, !tbaa !16
  %44 = icmp ult i64 %43, 16
  tail call void @llvm.assume(i1 %44)
  br label %_ZNSt7__cxx1112basic_stringIcSt11char_traitsIcESaIcEED2Ev.exit12

_ZNKSt7__cxx1112basic_stringIcSt11char_traitsIcESaIcEE11_M_is_localEv.exit.i.i10: ; preds = %_ZNSt7__cxx1112basic_stringIcSt11char_traitsIcESaIcEED2Ev.exit9
  %45 = load i64, ptr %40, align 8, !tbaa !17
  %46 = add i64 %45, 1
  tail call void @_ZdlPvm(ptr noundef %39, i64 noundef %46) #24
  br label %_ZNSt7__cxx1112basic_stringIcSt11char_traitsIcESaIcEED2Ev.exit12

_ZNSt7__cxx1112basic_stringIcSt11char_traitsIcESaIcEED2Ev.exit12: ; preds = %_ZNKSt7__cxx1112basic_stringIcSt11char_traitsIcESaIcEE11_M_is_localEv.exit.thread.i.i11, %_ZNKSt7__cxx1112basic_stringIcSt11char_traitsIcESaIcEE11_M_is_localEv.exit.i.i10
  store ptr getelementptr inbounds nuw inrange(-16, 80) (i8, ptr @_ZTVN5Yosys10ScriptPassE, i64 16), ptr %0, align 8, !tbaa !6
  %47 = getelementptr inbounds nuw i8, ptr %0, i64 152
  %48 = load ptr, ptr %47, align 8, !tbaa !9
  %49 = getelementptr inbounds nuw i8, ptr %0, i64 168
  %50 = icmp eq ptr %48, %49
  br i1 %50, label %_ZNKSt7__cxx1112basic_stringIcSt11char_traitsIcESaIcEE11_M_is_localEv.exit.thread.i.i.i, label %_ZNKSt7__cxx1112basic_stringIcSt11char_traitsIcESaIcEE11_M_is_localEv.exit.i.i.i

_ZNKSt7__cxx1112basic_stringIcSt11char_traitsIcESaIcEE11_M_is_localEv.exit.thread.i.i.i: ; preds = %_ZNSt7__cxx1112basic_stringIcSt11char_traitsIcESaIcEED2Ev.exit12
  %51 = getelementptr inbounds nuw i8, ptr %0, i64 160
  %52 = load i64, ptr %51, align 8, !tbaa !16
  %53 = icmp ult i64 %52, 16
  tail call void @llvm.assume(i1 %53)
  br label %_ZNSt7__cxx1112basic_stringIcSt11char_traitsIcESaIcEED2Ev.exit.i

_ZNKSt7__cxx1112basic_stringIcSt11char_traitsIcESaIcEE11_M_is_localEv.exit.i.i.i: ; preds = %_ZNSt7__cxx1112basic_stringIcSt11char_traitsIcESaIcEED2Ev.exit12
  %54 = load i64, ptr %49, align 8, !tbaa !17
  %55 = add i64 %54, 1
  tail call void @_ZdlPvm(ptr noundef %48, i64 noundef %55) #24
  br label %_ZNSt7__cxx1112basic_stringIcSt11char_traitsIcESaIcEED2Ev.exit.i

_ZNSt7__cxx1112basic_stringIcSt11char_traitsIcESaIcEED2Ev.exit.i: ; preds = %_ZNKSt7__cxx1112basic_stringIcSt11char_traitsIcESaIcEE11_M_is_localEv.exit.i.i.i, %_ZNKSt7__cxx1112basic_stringIcSt11char_traitsIcESaIcEE11_M_is_localEv.exit.thread.i.i.i
  %56 = getelementptr inbounds nuw i8, ptr %0, i64 120
  %57 = load ptr, ptr %56, align 8, !tbaa !9
  %58 = getelementptr inbounds nuw i8, ptr %0, i64 136
  %59 = icmp eq ptr %57, %58
  br i1 %59, label %_ZNKSt7__cxx1112basic_stringIcSt11char_traitsIcESaIcEE11_M_is_localEv.exit.thread.i.i2.i, label %_ZNKSt7__cxx1112basic_stringIcSt11char_traitsIcESaIcEE11_M_is_localEv.exit.i.i1.i

_ZNKSt7__cxx1112basic_stringIcSt11char_traitsIcESaIcEE11_M_is_localEv.exit.thread.i.i2.i: ; preds = %_ZNSt7__cxx1112basic_stringIcSt11char_traitsIcESaIcEED2Ev.exit.i
  %60 = getelementptr inbounds nuw i8, ptr %0, i64 128
  %61 = load i64, ptr %60, align 8, !tbaa !16
  %62 = icmp ult i64 %61, 16
  tail call void @llvm.assume(i1 %62)
  br label %_ZN5Yosys10ScriptPassD2Ev.exit

_ZNKSt7__cxx1112basic_stringIcSt11char_traitsIcESaIcEE11_M_is_localEv.exit.i.i1.i: ; preds = %_ZNSt7__cxx1112basic_stringIcSt11char_traitsIcESaIcEED2Ev.exit.i
  %63 = load i64, ptr %58, align 8, !tbaa !17
  %64 = add i64 %63, 1
  tail call void @_ZdlPvm(ptr noundef %57, i64 noundef %64) #24
  br label %_ZN5Yosys10ScriptPassD2Ev.exit

_ZN5Yosys10ScriptPassD2Ev.exit:                   ; preds = %_ZNKSt7__cxx1112basic_stringIcSt11char_traitsIcESaIcEE11_M_is_localEv.exit.thread.i.i2.i, %_ZNKSt7__cxx1112basic_stringIcSt11char_traitsIcESaIcEE11_M_is_localEv.exit.i.i1.i
  tail call void @_ZN5Yosys4PassD2Ev(ptr noundef nonnull align 8 dereferenceable(184) %0) #25
  ret void
}